; Function Attrs: nounwind uwtable
define internal nonnull ptr @alloc_cb() #0 {
  %1 = tail call ptr @lv_malloc(i64 noundef 120) #5
  %.not = icmp eq ptr %1, null
  br i1 %.not, label %.preheader, label %2

.preheader:                                       ; preds = %0, %.preheader
  br label %.preheader

2:                                                ; preds = %0
  tail call void @lv_memset(ptr noundef nonnull %1, i8 noundef zeroext 0, i64 noundef 120) #5
  ret ptr %1
}